; ModuleID = '17/753.c'
source_filename = "17/753.c"
target datalayout = "e-m:e-p270:32:32-p271:32:32-p272:64:64-i64:64-f80:128-n8:16:32:64-S128"
target triple = "x86_64-pc-linux-gnu"

%struct._IO_FILE = type { i32, i8*, i8*, i8*, i8*, i8*, i8*, i8*, i8*, i8*, i8*, i8*, %struct._IO_marker*, %struct._IO_FILE*, i32, i32, i64, i16, i8, [1 x i8], i8*, i64, %struct._IO_codecvt*, %struct._IO_wide_data*, %struct._IO_FILE*, i8*, i64, i32, [20 x i8] }
%struct._IO_marker = type opaque
%struct._IO_codecvt = type opaque
%struct._IO_wide_data = type opaque

@stdin = external dso_local global %struct._IO_FILE*, align 8

; Function Attrs: noinline nounwind uwtable
define dso_local void @main() #0 {
  %1 = alloca [300 x i8], align 16
  %2 = alloca i32, align 4
  %3 = alloca i32, align 4
  %4 = alloca i32, align 4
  %5 = alloca i32, align 4
  %6 = alloca i32, align 4
  %7 = alloca i32, align 4
  br label %8

8:                                                ; preds = %154, %0
  store i32 0, i32* %5, align 4
  store i32 0, i32* %6, align 4
  %9 = getelementptr inbounds [300 x i8], [300 x i8]* %1, i64 0, i64 0
  %10 = call i32 (i8*, ...) bitcast (i32 (...)* @gets to i32 (i8*, ...)*)(i8* %9)
  %11 = load %struct._IO_FILE*, %struct._IO_FILE** @stdin, align 8
  %12 = call i32 @feof(%struct._IO_FILE* %11) #4
  %13 = icmp ne i32 %12, 0
  br i1 %13, label %14, label %15

14:                                               ; preds = %8
  br label %157

15:                                               ; preds = %8
  %16 = getelementptr inbounds [300 x i8], [300 x i8]* %1, i64 0, i64 0
  %17 = call i32 @puts(i8* %16)
  %18 = getelementptr inbounds [300 x i8], [300 x i8]* %1, i64 0, i64 0
  %19 = call i64 @strlen(i8* %18) #5
  %20 = trunc i64 %19 to i32
  store i32 %20, i32* %7, align 4
  store i32 0, i32* %2, align 4
  br label %21

21:                                               ; preds = %71, %15
  %22 = load i32, i32* %2, align 4
  %23 = load i32, i32* %7, align 4
  %24 = icmp slt i32 %22, %23
  br i1 %24, label %25, label %74

25:                                               ; preds = %21
  %26 = load i32, i32* %2, align 4
  %27 = sext i32 %26 to i64
  %28 = getelementptr inbounds [300 x i8], [300 x i8]* %1, i64 0, i64 %27
  %29 = load i8, i8* %28, align 1
  %30 = sext i8 %29 to i32
  %31 = icmp eq i32 %30, 40
  br i1 %31, label %32, label %35

32:                                               ; preds = %25
  store i32 1, i32* %5, align 4
  %33 = load i32, i32* %6, align 4
  %34 = add nsw i32 %33, 1
  store i32 %34, i32* %6, align 4
  br label %35

35:                                               ; preds = %32, %25
  %36 = load i32, i32* %2, align 4
  %37 = sext i32 %36 to i64
  %38 = getelementptr inbounds [300 x i8], [300 x i8]* %1, i64 0, i64 %37
  %39 = load i8, i8* %38, align 1
  %40 = sext i8 %39 to i32
  %41 = icmp eq i32 %40, 41
  br i1 %41, label %42, label %49

42:                                               ; preds = %35
  %43 = load i32, i32* %5, align 4
  %44 = icmp eq i32 %43, 0
  br i1 %44, label %45, label %49

45:                                               ; preds = %42
  %46 = load i32, i32* %2, align 4
  %47 = sext i32 %46 to i64
  %48 = getelementptr inbounds [300 x i8], [300 x i8]* %1, i64 0, i64 %47
  store i8 63, i8* %48, align 1
  br label %49

49:                                               ; preds = %45, %42, %35
  %50 = load i32, i32* %2, align 4
  %51 = sext i32 %50 to i64
  %52 = getelementptr inbounds [300 x i8], [300 x i8]* %1, i64 0, i64 %51
  %53 = load i8, i8* %52, align 1
  %54 = sext i8 %53 to i32
  %55 = icmp eq i32 %54, 41
  br i1 %55, label %56, label %70

56:                                               ; preds = %49
  %57 = load i32, i32* %5, align 4
  %58 = icmp eq i32 %57, 1
  br i1 %58, label %59, label %70

59:                                               ; preds = %56
  %60 = load i32, i32* %6, align 4
  %61 = icmp sgt i32 %60, 0
  br i1 %61, label %62, label %65

62:                                               ; preds = %59
  %63 = load i32, i32* %6, align 4
  %64 = add nsw i32 %63, -1
  store i32 %64, i32* %6, align 4
  br label %69

65:                                               ; preds = %59
  %66 = load i32, i32* %2, align 4
  %67 = sext i32 %66 to i64
  %68 = getelementptr inbounds [300 x i8], [300 x i8]* %1, i64 0, i64 %67
  store i8 63, i8* %68, align 1
  br label %69

69:                                               ; preds = %65, %62
  br label %70

70:                                               ; preds = %69, %56, %49
  br label %71

71:                                               ; preds = %70
  %72 = load i32, i32* %2, align 4
  %73 = add nsw i32 %72, 1
  store i32 %73, i32* %2, align 4
  br label %21

74:                                               ; preds = %21
  store i32 0, i32* %5, align 4
  store i32 0, i32* %6, align 4
  br label %75

75:                                               ; preds = %124, %74
  %76 = load i32, i32* %2, align 4
  %77 = icmp sge i32 %76, 0
  br i1 %77, label %78, label %127

78:                                               ; preds = %75
  %79 = load i32, i32* %2, align 4
  %80 = sext i32 %79 to i64
  %81 = getelementptr inbounds [300 x i8], [300 x i8]* %1, i64 0, i64 %80
  %82 = load i8, i8* %81, align 1
  %83 = sext i8 %82 to i32
  %84 = icmp eq i32 %83, 41
  br i1 %84, label %85, label %88

85:                                               ; preds = %78
  store i32 1, i32* %5, align 4
  %86 = load i32, i32* %6, align 4
  %87 = add nsw i32 %86, 1
  store i32 %87, i32* %6, align 4
  br label %88

88:                                               ; preds = %85, %78
  %89 = load i32, i32* %2, align 4
  %90 = sext i32 %89 to i64
  %91 = getelementptr inbounds [300 x i8], [300 x i8]* %1, i64 0, i64 %90
  %92 = load i8, i8* %91, align 1
  %93 = sext i8 %92 to i32
  %94 = icmp eq i32 %93, 40
  br i1 %94, label %95, label %102

95:                                               ; preds = %88
  %96 = load i32, i32* %5, align 4
  %97 = icmp eq i32 %96, 0
  br i1 %97, label %98, label %102

98:                                               ; preds = %95
  %99 = load i32, i32* %2, align 4
  %100 = sext i32 %99 to i64
  %101 = getelementptr inbounds [300 x i8], [300 x i8]* %1, i64 0, i64 %100
  store i8 36, i8* %101, align 1
  br label %102

102:                                              ; preds = %98, %95, %88
  %103 = load i32, i32* %2, align 4
  %104 = sext i32 %103 to i64
  %105 = getelementptr inbounds [300 x i8], [300 x i8]* %1, i64 0, i64 %104
  %106 = load i8, i8* %105, align 1
  %107 = sext i8 %106 to i32
  %108 = icmp eq i32 %107, 40
  br i1 %108, label %109, label %123

109:                                              ; preds = %102
  %110 = load i32, i32* %5, align 4
  %111 = icmp eq i32 %110, 1
  br i1 %111, label %112, label %123

112:                                              ; preds = %109
  %113 = load i32, i32* %6, align 4
  %114 = icmp sgt i32 %113, 0
  br i1 %114, label %115, label %118

115:                                              ; preds = %112
  %116 = load i32, i32* %6, align 4
  %117 = add nsw i32 %116, -1
  store i32 %117, i32* %6, align 4
  br label %122

118:                                              ; preds = %112
  %119 = load i32, i32* %2, align 4
  %120 = sext i32 %119 to i64
  %121 = getelementptr inbounds [300 x i8], [300 x i8]* %1, i64 0, i64 %120
  store i8 36, i8* %121, align 1
  br label %122

122:                                              ; preds = %118, %115
  br label %123

123:                                              ; preds = %122, %109, %102
  br label %124

124:                                              ; preds = %123
  %125 = load i32, i32* %2, align 4
  %126 = add nsw i32 %125, -1
  store i32 %126, i32* %2, align 4
  br label %75

127:                                              ; preds = %75
  store i32 0, i32* %2, align 4
  br label %128

128:                                              ; preds = %151, %127
  %129 = load i32, i32* %2, align 4
  %130 = load i32, i32* %7, align 4
  %131 = icmp slt i32 %129, %130
  br i1 %131, label %132, label %154

132:                                              ; preds = %128
  %133 = load i32, i32* %2, align 4
  %134 = sext i32 %133 to i64
  %135 = getelementptr inbounds [300 x i8], [300 x i8]* %1, i64 0, i64 %134
  %136 = load i8, i8* %135, align 1
  %137 = sext i8 %136 to i32
  %138 = icmp ne i32 %137, 63
  br i1 %138, label %139, label %150

139:                                              ; preds = %132
  %140 = load i32, i32* %2, align 4
  %141 = sext i32 %140 to i64
  %142 = getelementptr inbounds [300 x i8], [300 x i8]* %1, i64 0, i64 %141
  %143 = load i8, i8* %142, align 1
  %144 = sext i8 %143 to i32
  %145 = icmp ne i32 %144, 36
  br i1 %145, label %146, label %150

146:                                              ; preds = %139
  %147 = load i32, i32* %2, align 4
  %148 = sext i32 %147 to i64
  %149 = getelementptr inbounds [300 x i8], [300 x i8]* %1, i64 0, i64 %148
  store i8 32, i8* %149, align 1
  br label %150

150:                                              ; preds = %146, %139, %132
  br label %151

151:                                              ; preds = %150
  %152 = load i32, i32* %2, align 4
  %153 = add nsw i32 %152, 1
  store i32 %153, i32* %2, align 4
  br label %128

154:                                              ; preds = %128
  %155 = getelementptr inbounds [300 x i8], [300 x i8]* %1, i64 0, i64 0
  %156 = call i32 @puts(i8* %155)
  br label %8

157:                                              ; preds = %14
  ret void
}

declare dso_local i32 @gets(...) #1

; Function Attrs: nounwind
declare dso_local i32 @feof(%struct._IO_FILE*) #2

declare dso_local i32 @puts(i8*) #1

; Function Attrs: nounwind readonly
declare dso_local i64 @strlen(i8*) #3


!llvm.module.flags = !{!0}
!llvm.ident = !{!1}

!0 = !{i32 1, !"wchar_size", i32 4}
!1 = !{!"clang version 10.0.0-4ubuntu1 "}
